target datalayout = "e-m:e-p270:32:32-p271:32:32-p272:64:64-i64:64-i128:128-f80:128-n8:16:32:64-S128"
target triple = "x86_64-pc-linux-gnu"

%struct.FunctionCallInfoBaseData = type { ptr, ptr, ptr, i32, i8, i16, [0 x %struct.NullableDatum] }
%struct.NullableDatum = type { i64, i8 }
%struct.Node = type { i32 }
%struct.SupportRequestIndexCondition = type { i32, ptr, i32, ptr, i32, ptr, i32, i32, i32, i8 }
%struct.OpExpr = type { %struct.Expr, i32, i32, i32, i8, i32, i32, ptr, i32 }
%struct.Expr = type { i32 }
%struct.FuncExpr = type { %struct.Expr, i32, i32, i8, i8, i32, i32, i32, ptr, i32 }
%struct.List = type { i32, i32, i32, ptr, [0 x %union.ListCell] }
%union.ListCell = type { ptr }

; Function Attrs: inlinehint nounwind uwtable
define internal i64 @PointerGetDatum(ptr noundef %0) #2 {
  %2 = alloca ptr, align 8
  store ptr %0, ptr %2, align 8
  %3 = load ptr, ptr %2, align 8
  %4 = ptrtoint ptr %3 to i64
  ret i64 %4
}

; Function Attrs: inlinehint nounwind uwtable
define internal zeroext i1 @is_funcclause(ptr noundef %0) #2 {
  %2 = alloca ptr, align 8
  store ptr %0, ptr %2, align 8
  %3 = load ptr, ptr %2, align 8
  %4 = icmp ne ptr %3, null
  br i1 %4, label %5, label %10

5:                                                ; preds = %1
  %6 = load ptr, ptr %2, align 8
  %7 = getelementptr inbounds nuw %struct.Node, ptr %6, i32 0, i32 0
  %8 = load i32, ptr %7, align 4
  %9 = icmp eq i32 %8, 15
  br label %10

10:                                               ; preds = %5, %1
  %11 = phi i1 [ false, %1 ], [ %9, %5 ]
  ret i1 %11
}

; Function Attrs: nounwind uwtable
define internal ptr @match_network_function(ptr noundef %0, ptr noundef %1, i32 noundef %2, i32 noundef %3, i32 noundef %4) #0 {
  %6 = alloca ptr, align 8
  %7 = alloca ptr, align 8
  %8 = alloca ptr, align 8
  %9 = alloca i32, align 4
  %10 = alloca i32, align 4
  %11 = alloca i32, align 4
  store ptr %0, ptr %7, align 8
  store ptr %1, ptr %8, align 8
  store i32 %2, ptr %9, align 4
  store i32 %3, ptr %10, align 4
  store i32 %4, ptr %11, align 4
  %12 = load i32, ptr %10, align 4
  switch i32 %12, label %49 [
    i32 927, label %13
    i32 928, label %22
    i32 929, label %31
    i32 930, label %40
  ]

13:                                               ; preds = %5
  %14 = load i32, ptr %9, align 4
  %15 = icmp ne i32 %14, 0
  br i1 %15, label %16, label %17

16:                                               ; preds = %13
  store ptr null, ptr %6, align 8
  br label %50

17:                                               ; preds = %13
  %18 = load ptr, ptr %7, align 8
  %19 = load ptr, ptr %8, align 8
  %20 = load i32, ptr %11, align 4
  %21 = call ptr @match_network_subset(ptr noundef %18, ptr noundef %19, i1 noundef zeroext false, i32 noundef %20)
  store ptr %21, ptr %6, align 8
  br label %50

22:                                               ; preds = %5
  %23 = load i32, ptr %9, align 4
  %24 = icmp ne i32 %23, 0
  br i1 %24, label %25, label %26

25:                                               ; preds = %22
  store ptr null, ptr %6, align 8
  br label %50

26:                                               ; preds = %22
  %27 = load ptr, ptr %7, align 8
  %28 = load ptr, ptr %8, align 8
  %29 = load i32, ptr %11, align 4
  %30 = call ptr @match_network_subset(ptr noundef %27, ptr noundef %28, i1 noundef zeroext true, i32 noundef %29)
  store ptr %30, ptr %6, align 8
  br label %50

31:                                               ; preds = %5
  %32 = load i32, ptr %9, align 4
  %33 = icmp ne i32 %32, 1
  br i1 %33, label %34, label %35

34:                                               ; preds = %31
  store ptr null, ptr %6, align 8
  br label %50

35:                                               ; preds = %31
  %36 = load ptr, ptr %8, align 8
  %37 = load ptr, ptr %7, align 8
  %38 = load i32, ptr %11, align 4
  %39 = call ptr @match_network_subset(ptr noundef %36, ptr noundef %37, i1 noundef zeroext false, i32 noundef %38)
  store ptr %39, ptr %6, align 8
  br label %50

40:                                               ; preds = %5
  %41 = load i32, ptr %9, align 4
  %42 = icmp ne i32 %41, 1
  br i1 %42, label %43, label %44

43:                                               ; preds = %40
  store ptr null, ptr %6, align 8
  br label %50

44:                                               ; preds = %40
  %45 = load ptr, ptr %8, align 8
  %46 = load ptr, ptr %7, align 8
  %47 = load i32, ptr %11, align 4
  %48 = call ptr @match_network_subset(ptr noundef %45, ptr noundef %46, i1 noundef zeroext true, i32 noundef %47)
  store ptr %48, ptr %6, align 8
  br label %50

49:                                               ; preds = %5
  store ptr null, ptr %6, align 8
  br label %50

50:                                               ; preds = %49, %44, %43, %35, %34, %26, %25, %17, %16
  %51 = load ptr, ptr %6, align 8
  ret ptr %51
}

; Function Attrs: inlinehint nounwind uwtable
define internal ptr @list_nth_cell(ptr noundef %0, i32 noundef %1) #2 {
  %3 = alloca ptr, align 8
  %4 = alloca i32, align 4
  store ptr %0, ptr %3, align 8
  store i32 %1, ptr %4, align 4
  %5 = load ptr, ptr %3, align 8
  %6 = getelementptr inbounds nuw %struct.List, ptr %5, i32 0, i32 3
  %7 = load ptr, ptr %6, align 8
  %8 = load i32, ptr %4, align 4
  %9 = sext i32 %8 to i64
  %10 = getelementptr inbounds %union.ListCell, ptr %7, i64 %9
  ret ptr %10
}

; Function Attrs: inlinehint nounwind uwtable
define internal zeroext i1 @is_opclause(ptr noundef %0) #2 {
  %2 = alloca ptr, align 8
  store ptr %0, ptr %2, align 8
  %3 = load ptr, ptr %2, align 8
  %4 = icmp ne ptr %3, null
  br i1 %4, label %5, label %10

5:                                                ; preds = %1
  %6 = load ptr, ptr %2, align 8
  %7 = getelementptr inbounds nuw %struct.Node, ptr %6, i32 0, i32 0
  %8 = load i32, ptr %7, align 4
  %9 = icmp eq i32 %8, 17
  br label %10

10:                                               ; preds = %5, %1
  %11 = phi i1 [ false, %1 ], [ %9, %5 ]
  ret i1 %11
}

; Function Attrs: inlinehint nounwind uwtable
define internal ptr @DatumGetPointer(i64 noundef %0) #2 {
  %2 = alloca i64, align 8
  store i64 %0, ptr %2, align 8
  %3 = load i64, ptr %2, align 8
  %4 = inttoptr i64 %3 to ptr
  ret ptr %4
}

; Function Attrs: nounwind uwtable
define dso_local i64 @network_subset_support(ptr noundef %0) #0 {
  %2 = alloca ptr, align 8
  %3 = alloca ptr, align 8
  %4 = alloca ptr, align 8
  %5 = alloca ptr, align 8
  %6 = alloca ptr, align 8
  %7 = alloca ptr, align 8
  store ptr %0, ptr %2, align 8
  call void @llvm.lifetime.start.p0(i64 8, ptr %3) #8
  %8 = load ptr, ptr %2, align 8
  %9 = getelementptr inbounds nuw %struct.FunctionCallInfoBaseData, ptr %8, i32 0, i32 6
  %10 = getelementptr inbounds [0 x %struct.NullableDatum], ptr %9, i64 0, i64 0
  %11 = getelementptr inbounds nuw %struct.NullableDatum, ptr %10, i32 0, i32 0
  %12 = load i64, ptr %11, align 8
  %13 = call ptr @DatumGetPointer(i64 noundef %12)
  store ptr %13, ptr %3, align 8
  call void @llvm.lifetime.start.p0(i64 8, ptr %4) #8
  store ptr null, ptr %4, align 8
  %14 = load ptr, ptr %3, align 8
  %15 = getelementptr inbounds nuw %struct.Node, ptr %14, i32 0, i32 0
  %16 = load i32, ptr %15, align 4
  %17 = icmp eq i32 %16, 460
  br i1 %17, label %18, label %79

18:                                               ; preds = %1
  call void @llvm.lifetime.start.p0(i64 8, ptr %5) #8
  %19 = load ptr, ptr %3, align 8
  store ptr %19, ptr %5, align 8
  %20 = load ptr, ptr %5, align 8
  %21 = getelementptr inbounds nuw %struct.SupportRequestIndexCondition, ptr %20, i32 0, i32 3
  %22 = load ptr, ptr %21, align 8
  %23 = call zeroext i1 @is_opclause(ptr noundef %22)
  br i1 %23, label %24, label %48

24:                                               ; preds = %18
  call void @llvm.lifetime.start.p0(i64 8, ptr %6) #8
  %25 = load ptr, ptr %5, align 8
  %26 = getelementptr inbounds nuw %struct.SupportRequestIndexCondition, ptr %25, i32 0, i32 3
  %27 = load ptr, ptr %26, align 8
  store ptr %27, ptr %6, align 8
  %28 = load ptr, ptr %6, align 8
  %29 = getelementptr inbounds nuw %struct.OpExpr, ptr %28, i32 0, i32 7
  %30 = load ptr, ptr %29, align 8
  %31 = call ptr @list_nth_cell(ptr noundef %30, i32 noundef 0)
  %32 = load ptr, ptr %31, align 8
  %33 = load ptr, ptr %6, align 8
  %34 = getelementptr inbounds nuw %struct.OpExpr, ptr %33, i32 0, i32 7
  %35 = load ptr, ptr %34, align 8
  %36 = call ptr @list_nth_cell(ptr noundef %35, i32 noundef 1)
  %37 = load ptr, ptr %36, align 8
  %38 = load ptr, ptr %5, align 8
  %39 = getelementptr inbounds nuw %struct.SupportRequestIndexCondition, ptr %38, i32 0, i32 4
  %40 = load i32, ptr %39, align 8
  %41 = load ptr, ptr %5, align 8
  %42 = getelementptr inbounds nuw %struct.SupportRequestIndexCondition, ptr %41, i32 0, i32 2
  %43 = load i32, ptr %42, align 8
  %44 = load ptr, ptr %5, align 8
  %45 = getelementptr inbounds nuw %struct.SupportRequestIndexCondition, ptr %44, i32 0, i32 7
  %46 = load i32, ptr %45, align 4
  %47 = call ptr @match_network_function(ptr noundef %32, ptr noundef %37, i32 noundef %40, i32 noundef %43, i32 noundef %46)
  store ptr %47, ptr %4, align 8
  call void @llvm.lifetime.end.p0(i64 8, ptr %6) #8
  br label %78

48:                                               ; preds = %18
  %49 = load ptr, ptr %5, align 8
  %50 = getelementptr inbounds nuw %struct.SupportRequestIndexCondition, ptr %49, i32 0, i32 3
  %51 = load ptr, ptr %50, align 8
  %52 = call zeroext i1 @is_funcclause(ptr noundef %51)
  br i1 %52, label %53, label %77

53:                                               ; preds = %48
  call void @llvm.lifetime.start.p0(i64 8, ptr %7) #8
  %54 = load ptr, ptr %5, align 8
  %55 = getelementptr inbounds nuw %struct.SupportRequestIndexCondition, ptr %54, i32 0, i32 3
  %56 = load ptr, ptr %55, align 8
  store ptr %56, ptr %7, align 8
  %57 = load ptr, ptr %7, align 8
  %58 = getelementptr inbounds nuw %struct.FuncExpr, ptr %57, i32 0, i32 8
  %59 = load ptr, ptr %58, align 8
  %60 = call ptr @list_nth_cell(ptr noundef %59, i32 noundef 0)
  %61 = load ptr, ptr %60, align 8
  %62 = load ptr, ptr %7, align 8
  %63 = getelementptr inbounds nuw %struct.FuncExpr, ptr %62, i32 0, i32 8
  %64 = load ptr, ptr %63, align 8
  %65 = call ptr @list_nth_cell(ptr noundef %64, i32 noundef 1)
  %66 = load ptr, ptr %65, align 8
  %67 = load ptr, ptr %5, align 8
  %68 = getelementptr inbounds nuw %struct.SupportRequestIndexCondition, ptr %67, i32 0, i32 4
  %69 = load i32, ptr %68, align 8
  %70 = load ptr, ptr %5, align 8
  %71 = getelementptr inbounds nuw %struct.SupportRequestIndexCondition, ptr %70, i32 0, i32 2
  %72 = load i32, ptr %71, align 8
  %73 = load ptr, ptr %5, align 8
  %74 = getelementptr inbounds nuw %struct.SupportRequestIndexCondition, ptr %73, i32 0, i32 7
  %75 = load i32, ptr %74, align 4
  %76 = call ptr @match_network_function(ptr noundef %61, ptr noundef %66, i32 noundef %69, i32 noundef %72, i32 noundef %75)
  store ptr %76, ptr %4, align 8
  call void @llvm.lifetime.end.p0(i64 8, ptr %7) #8
  br label %77

77:                                               ; preds = %53, %48
  br label %78

78:                                               ; preds = %77, %24
  call void @llvm.lifetime.end.p0(i64 8, ptr %5) #8
  br label %79

79:                                               ; preds = %78, %1
  %80 = load ptr, ptr %4, align 8
  %81 = call i64 @PointerGetDatum(ptr noundef %80)
  call void @llvm.lifetime.end.p0(i64 8, ptr %4) #8
  call void @llvm.lifetime.end.p0(i64 8, ptr %3) #8
  ret i64 %81
}