; Function Attrs: nounwind uwtable
define dso_local i64 @network_subset_support(ptr noundef readonly captures(none) %0) local_unnamed_addr #0 {
  %2 = getelementptr inbounds nuw i8, ptr %0, i64 32
  %3 = load i64, ptr %2, align 8
  %4 = inttoptr i64 %3 to ptr
  %5 = load i32, ptr %4, align 4
  %6 = icmp eq i32 %5, 460
  br i1 %6, label %7, label %match_network_function.exit

7:                                                ; preds = %1
  %8 = getelementptr inbounds nuw i8, ptr %4, i64 24
  %9 = load ptr, ptr %8, align 8
  %.not.i = icmp eq ptr %9, null
  br i1 %.not.i, label %match_network_function.exit, label %is_opclause.exit

is_opclause.exit:                                 ; preds = %7
  %10 = load i32, ptr %9, align 4
  switch i32 %10, label %match_network_function.exit [
    i32 17, label %11
    i32 15, label %36
  ]

11:                                               ; preds = %is_opclause.exit
  %12 = getelementptr inbounds nuw i8, ptr %9, i64 32
  %13 = load ptr, ptr %12, align 8
  %14 = getelementptr i8, ptr %13, i64 16
  %.val = load ptr, ptr %14, align 8
  %15 = load ptr, ptr %.val, align 8
  %16 = getelementptr inbounds nuw i8, ptr %.val, i64 8
  %17 = load ptr, ptr %16, align 8
  %18 = getelementptr inbounds nuw i8, ptr %4, i64 32
  %19 = load i32, ptr %18, align 8
  %20 = getelementptr inbounds nuw i8, ptr %4, i64 16
  %21 = load i32, ptr %20, align 8
  %22 = getelementptr inbounds nuw i8, ptr %4, i64 52
  %23 = load i32, ptr %22, align 4
  switch i32 %21, label %match_network_function.exit [
    i32 927, label %24
    i32 928, label %27
    i32 929, label %30
    i32 930, label %33
  ]

24:                                               ; preds = %11
  %.not19.i = icmp eq i32 %19, 0
  br i1 %.not19.i, label %25, label %match_network_function.exit

25:                                               ; preds = %24
  %26 = tail call fastcc ptr @match_network_subset(ptr noundef %15, ptr noundef %17, i1 noundef zeroext false, i32 noundef %23)
  br label %match_network_function.exit

27:                                               ; preds = %11
  %.not18.i = icmp eq i32 %19, 0
  br i1 %.not18.i, label %28, label %match_network_function.exit

28:                                               ; preds = %27
  %29 = tail call fastcc ptr @match_network_subset(ptr noundef %15, ptr noundef %17, i1 noundef zeroext true, i32 noundef %23)
  br label %match_network_function.exit

30:                                               ; preds = %11
  %.not17.i = icmp eq i32 %19, 1
  br i1 %.not17.i, label %31, label %match_network_function.exit

31:                                               ; preds = %30
  %32 = tail call fastcc ptr @match_network_subset(ptr noundef %17, ptr noundef %15, i1 noundef zeroext false, i32 noundef %23)
  br label %match_network_function.exit

33:                                               ; preds = %11
  %.not.i21 = icmp eq i32 %19, 1
  br i1 %.not.i21, label %34, label %match_network_function.exit

34:                                               ; preds = %33
  %35 = tail call fastcc ptr @match_network_subset(ptr noundef %17, ptr noundef %15, i1 noundef zeroext true, i32 noundef %23)
  br label %match_network_function.exit

36:                                               ; preds = %is_opclause.exit
  %37 = getelementptr inbounds nuw i8, ptr %9, i64 32
  %38 = load ptr, ptr %37, align 8
  %39 = getelementptr i8, ptr %38, i64 16
  %.val19 = load ptr, ptr %39, align 8
  %40 = load ptr, ptr %.val19, align 8
  %41 = getelementptr inbounds nuw i8, ptr %.val19, i64 8
  %42 = load ptr, ptr %41, align 8
  %43 = getelementptr inbounds nuw i8, ptr %4, i64 32
  %44 = load i32, ptr %43, align 8
  %45 = getelementptr inbounds nuw i8, ptr %4, i64 16
  %46 = load i32, ptr %45, align 8
  %47 = getelementptr inbounds nuw i8, ptr %4, i64 52
  %48 = load i32, ptr %47, align 4
  switch i32 %46, label %match_network_function.exit [
    i32 927, label %49
    i32 928, label %52
    i32 929, label %55
    i32 930, label %58
  ]

49:                                               ; preds = %36
  %.not19.i27 = icmp eq i32 %44, 0
  br i1 %.not19.i27, label %50, label %match_network_function.exit

50:                                               ; preds = %49
  %51 = tail call fastcc ptr @match_network_subset(ptr noundef %40, ptr noundef %42, i1 noundef zeroext false, i32 noundef %48)
  br label %match_network_function.exit

52:                                               ; preds = %36
  %.not18.i26 = icmp eq i32 %44, 0
  br i1 %.not18.i26, label %53, label %match_network_function.exit

53:                                               ; preds = %52
  %54 = tail call fastcc ptr @match_network_subset(ptr noundef %40, ptr noundef %42, i1 noundef zeroext true, i32 noundef %48)
  br label %match_network_function.exit

55:                                               ; preds = %36
  %.not17.i25 = icmp eq i32 %44, 1
  br i1 %.not17.i25, label %56, label %match_network_function.exit

56:                                               ; preds = %55
  %57 = tail call fastcc ptr @match_network_subset(ptr noundef %42, ptr noundef %40, i1 noundef zeroext false, i32 noundef %48)
  br label %match_network_function.exit

58:                                               ; preds = %36
  %.not.i23 = icmp eq i32 %44, 1
  br i1 %.not.i23, label %59, label %match_network_function.exit

59:                                               ; preds = %58
  %60 = tail call fastcc ptr @match_network_subset(ptr noundef %42, ptr noundef %40, i1 noundef zeroext true, i32 noundef %48)
  br label %match_network_function.exit

match_network_function.exit:                      ; preds = %is_opclause.exit, %7, %59, %58, %56, %55, %53, %52, %50, %49, %36, %34, %33, %31, %30, %28, %27, %25, %24, %11, %1
  %.0 = phi ptr [ null, %1 ], [ %35, %34 ], [ %32, %31 ], [ %29, %28 ], [ %26, %25 ], [ null, %24 ], [ null, %27 ], [ null, %30 ], [ null, %33 ], [ null, %11 ], [ %60, %59 ], [ %57, %56 ], [ %54, %53 ], [ %51, %50 ], [ null, %49 ], [ null, %52 ], [ null, %55 ], [ null, %58 ], [ null, %36 ], [ null, %7 ], [ null, %is_opclause.exit ]
  %61 = ptrtoint ptr %.0 to i64
  ret i64 %61
}